
 Start  Stop   Length Name               Class

 00100H 0E68CH 0E58DH CODE               CODE


  Address         Publics by Value

 0000:0100       start
 0000:0130       Reset
 0000:013E       loc_13E
 0000:0166       GameSuperLoop
 0000:0175       loc_175
 0000:018D       PrepareToDemo
 0000:018F       StartGame
 0000:01B7       loc_1B7
 0000:01BD       InitLivesAndWpn
 0000:01CA       ClearCharDataAndScore
 0000:01D4       ClearEnemiesTable
 0000:01DD       loc_1DD
 0000:01ED       PreInit
 0000:0209       ClearCharData
 0000:0227       ClearData1
 0000:023B       RespawnPickables
 0000:0243       loc_243
 0000:024F       StackPointer
 0000:0251       PrepareToGameAlias
 0000:0254       MainLoop
 0000:0274       loc_274
 0000:0284       HandlePlayer
 0000:028A       loc_28A
 0000:028D       HandlePlayer_Continue
 0000:0292       HandlePlayer_RemovePole
 0000:029B       HandlePlayer_MarkPoleRemoved
 0000:029F       HandlePlayer_NotSuspended
 0000:02AA       HandlePlayer_NotEaten
 0000:02B3       HandlePlayer_NotInWater
 0000:02BC       HandlePlayer_NotInSwamp
 0000:02CB       HandlePlayer_IfInSwamp
 0000:02D3       HandlePlayer_NotSinking
 0000:02DF       HandlePlayer_NoDangerOfDeath
 0000:02EA       HandlePlayer_AliveAndPlaying
 0000:02F6       loc_2F6
 0000:02FF       loc_2FF
 0000:030B       NotInJump
 0000:0321       loc_321
 0000:0329       loc_329
 0000:032C       InTheAir
 0000:0339       loc_339
 0000:0345       loc_345
 0000:034E       loc_34E
 0000:0365       loc_365
 0000:036E       loc_36E
 0000:0371       loc_371
 0000:037E       loc_37E
 0000:0391       loc_391
 0000:0393       loc_393
 0000:03A0       loc_3A0
 0000:03B2       loc_3B2
 0000:03B7       loc_3B7
 0000:03BC       _AdjustJumpPhase
 0000:03C8       loc_3C8
 0000:03CF       loc_3CF
 0000:03D5       DeathInSwamp
 0000:03E8       loc_3E8
 0000:03F8       loc_3F8
 0000:0404       loc_404
 0000:040C       locret_40C
 0000:040D       DeathInWater
 0000:0432       loc_432
 0000:0441       loc_441
 0000:044D       loc_44D
 0000:0456       loc_456
 0000:045D       loc_45D
 0000:0461       loc_461
 0000:046B       loc_46B
 0000:0471       HandlePlayer_Eaten
 0000:047D       loc_47D
 0000:0483       WalkRight
 0000:0495       loc_495
 0000:04A1       IfAnimChanged0
 0000:04AD       loc_4AD
 0000:04B2       WalkLeft
 0000:04C4       loc_4C4
 0000:04D0       IfAnimChanged1
 0000:04DC       loc_4DC
 0000:04E1       Jump
 0000:04EE       loc_4EE
 0000:04F8       loc_4F8
 0000:051E       loc_51E
 0000:052C       loc_52C
 0000:0538       loc_538
 0000:053E       loc_53E
 0000:0547       loc_547
 0000:0553       loc_553
 0000:055C       loc_55C
 0000:0561       loc_561
 0000:0576       HandleJumpsAndDucks
 0000:057D       loc_57D
 0000:0586       Jump
 0000:058D       Jumpin
 0000:0599       loc_599
 0000:05B0       loc_5B0
 0000:05B9       loc_5B9
 0000:05C3       loc_5C3
 0000:05DA       loc_5DA
 0000:05E0       SitDown
 0000:05E7       loc_5E7
 0000:05F3       loc_5F3
 0000:05F9       loc_5F9
 0000:0603       StopPlayer
 0000:0619       loc_619
 0000:061F       LoadAnimData
 0000:0631       loc_631
 0000:0639       loc_639
 0000:063D       DecrementLives
 0000:0644       loc_644
 0000:0652       Respawn
 0000:0683       UsualDeath
 0000:0690       loc_690
 0000:069C       loc_69C
 0000:06A5       loc_6A5
 0000:06AB       locret_6AB
 0000:06AC       HandlePlayer_Coconuted
 0000:06B9       loc_6B9
 0000:06C5       loc_6C5
 0000:06CE       loc_6CE
 0000:06D4       loc_6D4
 0000:06DB       ServeFireKey
 0000:06E2       loc_6E2
 0000:06E9       loc_6E9
 0000:0701       IncreaseForce
 0000:070C       loc_70C
 0000:0716       loc_716
 0000:0721       Firing
 0000:072A       Shoot
 0000:0742       loc_742
 0000:0748       loc_748
 0000:0752       JumpToLeft
 0000:0758       JumpToRight
 0000:0763       PrepareJump
 0000:0786       loc_786
 0000:078D       CalcTileUnderObject
 0000:07C5       Obstacle
 0000:07CA       CalcAnimRect
 0000:0800       UpdatePositionByte
 0000:0814       loc_814
 0000:082A       loc_82A
 0000:0837       loc_837
 0000:0844       loc_844
 0000:0849       SetTopFlag
 0000:084E       SetLeftFlag
 0000:0853       SetBottomFlag
 0000:0858       UpdateObstacles
 0000:086C       loc_86C
 0000:088C       loc_88C
 0000:089A       PrepareToGame
 0000:08A3       GoToNewLocation
 0000:08BC       Loc0Script0
 0000:08C2       Loc1Script0
 0000:08C8       Loc2AScript0
 0000:08CE       Loc26Script0
 0000:08D4       Loc25Script0
 0000:08DA       Loc0Script1
 0000:08E5       locret_8E5
 0000:08E6       loc_8E6
 0000:08F0       _HandleFloatingLog
 0000:08F9       loc_8F9
 0000:0909       WpnFlags
 0000:090E       DrawUsedWeapon
 0000:0930       NoMatch
 0000:0939       FireWeapon
 0000:0943       loc_943
 0000:0956       loc_956
 0000:096B       FireBoomerang
 0000:098E       loc_98E
 0000:09B0       loc_9B0
 0000:09BB       FireKnife
 0000:09C8       loc_9C8
 0000:09D9       loc_9D9
 0000:09E7       loc_9E7
 0000:09ED       loc_9ED
 0000:09F3       FireBomb
 0000:0A04       loc_A04
 0000:0A09       loc_A09
 0000:0A0F       loc_A0F
 0000:0A26       Loc0Script2
 0000:0A2E       loc_A2E
 0000:0A37       loc_A37
 0000:0A43       BirdReveals
 0000:0A49       loc_A49
 0000:0A66       loc_A66
 0000:0A6E       ChangeLocation
 0000:0A77       loc_A77
 0000:0A83       loc_A83
 0000:0A97       loc_A97
 0000:0AA5       loc_AA5
 0000:0AB7       loc_AB7
 0000:0ABB       FetchRightLocation
 0000:0AC1       loc_AC1
 0000:0ACF       loc_ACF
 0000:0ADD       loc_ADD
 0000:0AE1       AtBottom
 0000:0AE8       FallingDown
 0000:0AF5       loc_AF5
 0000:0AFB       loc_AFB
 0000:0B0C       loc_B0C
 0000:0B19       loc_B19
 0000:0B31       loc_B31
 0000:0B38       loc_B38
 0000:0B54       loc_B54
 0000:0B79       loc_B79
 0000:0B7F       loc_B7F
 0000:0B82       InitFloatingLog
 0000:0B8D       loc_B8D
 0000:0B9A       IfOnLog_
 0000:0BA4       loc_BA4
 0000:0BA9       IfOnLog
 0000:0BB7       loc_BB7
 0000:0BBA       HandleInput
 0000:0BC8       Standby
 0000:0BDA       DoStandbyAction
 0000:0BF5       loc_BF5
 0000:0C06       _ToTheNextStep
 0000:0C0C       loc_C0C
 0000:0C1D       loc_C1D
 0000:0C30       loc_C30
 0000:0C32       PrepNextFrame
 0000:0C3F       AdjustFrame
 0000:0C48       PrepNextFrameEx
 0000:0C55       InitFrameSequence
 0000:0C62       IfZero
 0000:0C67       loc_C67
 0000:0C71       loc_C71
 0000:0C7E       loc_C7E
 0000:0C91       loc_C91
 0000:0C9E       GetTileAt
 0000:0CBC       CheckForBreakAndPause
 0000:0CC6       IfNotInterrupted
 0000:0CCC       Paused
 0000:0CD1       StillPaused
 0000:0CD6       Unpaused
 0000:0CDC       _Random
 0000:0CFD       loc_CFD
 0000:0D06       FindRecord
 0000:0D0C       loc_D0C
 0000:0D12       IfZero
 0000:0D1A       _NarcoDelay
 0000:0D2D       DrawFooter
 0000:0D35       loc_D35
 0000:0D45       loc_D45
 0000:0D56       DrawFooterTile
 0000:0D76       loc_D76
 0000:0D7B       _RealToAlt
 0000:0D95       _AltToReal
 0000:0DAF       LoadChrData
 0000:0DFA       InitCharAnim
 0000:0E12       loc_E12
 0000:0E18       ClearSingleCharData
 0000:0E31       AddCharacter
 0000:0E39       loc_E39
 0000:0E46       loc_E46
 0000:0E52       ReflectFromTop
 0000:0E59       loc_E59
 0000:0E5E       ReflectFromBottom
 0000:0E65       loc_E65
 0000:0E6A       MoveForward
 0000:0E76       MoveBackward
 0000:0E82       AdjustCoordsWhenLocChanged
 0000:0E96       StoreNewCoords
 0000:0EAA       Escape
 0000:0ECC       FallDown
 0000:0EEB       RestorePlayerCoords
 0000:0EF3       loc_EF3
 0000:0F0C       CalcVDIstance
 0000:0F16       loc_F16
 0000:0F19       CalcHDistance
 0000:0F23       loc_F23
 0000:0F26       TryToKillPlayer
 0000:0F31       loc_F31
 0000:0F3A       loc_F3A
 0000:0F3C       sub_F3C
 0000:0F40       Loc06Script0
 0000:0F43       loc_F43
 0000:0F50       PlayerDoesntDucks
 0000:0F60       ByBoomerang
 0000:0F6B       loc_F6B
 0000:0F71       ByBomb
 0000:0F7C       loc_F7C
 0000:0F8D       loc_F8D
 0000:0F94       loc_F94
 0000:0F9A       ByKnife
 0000:0FA5       loc_FA5
 0000:0FAB       CheckForCollision
 0000:0FD7       loc_FD7
 0000:1002       Bird2
 0000:1014       loc_1014
 0000:101B       Bird1
 0000:102D       loc_102D
 0000:1036       loc_1036
 0000:103F       loc_103F
 0000:1048       loc_1048
 0000:1051       loc_1051
 0000:1056       loc_1056
 0000:1060       Loc7Script0
 0000:1067       loc_1067
 0000:1072       FindCharByAnimation
 0000:107C       loc_107C
 0000:1086       loc_1086
 0000:1090       loc_1090
 0000:1095       sub_1095
 0000:109F       loc_109F
 0000:10A9       loc_10A9
 0000:10B3       loc_10B3
 0000:10B8       _Death
 0000:10CF       sub_10CF
 0000:10E0       DecreaseFoodNWaterS
 0000:1104       loc_1104
 0000:110E       loc_110E
 0000:1116       RunChrScripts
 0000:1124       loc_1124
 0000:1149       loc_1149
 0000:1160       CallScript2
 0000:1162       BoomerangScript
 0000:1178       loc_1178
 0000:1184       loc_1184
 0000:119B       loc_119B
 0000:11AC       KnifeScript
 0000:11BD       loc_11BD
 0000:11C1       loc_11C1
 0000:11CD       BombScript
 0000:11D7       loc_11D7
 0000:11DD       loc_11DD
 0000:11F5       loc_11F5
 0000:11FF       loc_11FF
 0000:1205       ExplodeScript
 0000:1212       loc_1212
 0000:121D       loc_121D
 0000:1222       loc_1222
 0000:1226       loc_1226
 0000:1235       loc_1235
 0000:1256       loc_1256
 0000:125C       loc_125C
 0000:1262       loc_1262
 0000:126E       loc_126E
 0000:1276       loc_1276
 0000:127D       loc_127D
 0000:128A       loc_128A
 0000:1298       loc_1298
 0000:129E       loc_129E
 0000:12B8       loc_12B8
 0000:12D4       loc_12D4
 0000:12D6       loc_12D6
 0000:12E4       loc_12E4
 0000:12F8       loc_12F8
 0000:1315       loc_1315
 0000:131E       PrepareRodJump
 0000:1329       loc_1329
 0000:1348       loc_1348
 0000:136E       loc_136E
 0000:1383       BonusScoreScript
 0000:138F       loc_138F
 0000:13AC       BirdScript
 0000:13BA       loc_13BA
 0000:13C5       sub_13C5
 0000:13D0       loc_13D0
 0000:13D7       loc_13D7
 0000:13F9       loc_13F9
 0000:1400       Loc0BScript0
 0000:1402       loc_1402
 0000:1407       loc_1407
 0000:141A       loc_141A
 0000:1423       loc_1423
 0000:1435       locret_1435
 0000:1436       loc_1436
 0000:1453       loc_1453
 0000:1465       locret_1465
 0000:1466       loc_1466
 0000:146C       loc_146C
 0000:148B       ShowEnemyDeath
 0000:149E       BubbleScript
 0000:14AF       DecreaseFoodNWater
 0000:14B8       loc_14B8
 0000:14BE       loc_14BE
 0000:14CE       loc_14CE
 0000:14E2       loc_14E2
 0000:14F0       loc_14F0
 0000:14FE       loc_14FE
 0000:150C       locret_150C
 0000:150D       loc_150D
 0000:1527       loc_1527
 0000:1537       loc_1537
 0000:156A       loc_156A
 0000:1573       loc_1573
 0000:158B       loc_158B
 0000:15A4       loc_15A4
 0000:15CB       loc_15CB
 0000:15D2       _FloatingLog
 0000:15D8       loc_15D8
 0000:15EB       loc_15EB
 0000:15F4       _AnimateLog
 0000:15FB       loc_15FB
 0000:1602       loc_1602
 0000:160F       loc_160F
 0000:1614       loc_1614
 0000:161A       loc_161A
 0000:1624       loc_1624
 0000:163A       loc_163A
 0000:1646       loc_1646
 0000:164C       loc_164C
 0000:1653       Nest
 0000:1660       loc_1660
 0000:166D       PlantScript
 0000:168F       loc_168F
 0000:16A0       loc_16A0
 0000:16AA       loc_16AA
 0000:16B0       loc_16B0
 0000:16BC       loc_16BC
 0000:16C1       loc_16C1
 0000:16D3       loc_16D3
 0000:16E9       loc_16E9
 0000:16F1       SwitchScript
 0000:16F8       loc_16F8
 0000:16FF       loc_16FF
 0000:1702       loc_1702
 0000:1717       WagonScript
 0000:172A       loc_172A
 0000:1736       loc_1736
 0000:1745       loc_1745
 0000:174B       MineGasScrpit
 0000:1751       loc_1751
 0000:1757       VertArrow1Script
 0000:1764       loc_1764
 0000:1774       loc_1774
 0000:1783       VertArrow2Script
 0000:178C       StarflashScript
 0000:1799       loc_1799
 0000:17A9       loc_17A9
 0000:17BC       loc_17BC
 0000:17BF       loc_17BF
 0000:17D3       loc_17D3
 0000:17DC       BulletScript
 0000:17EE       loc_17EE
 0000:17F3       loc_17F3
 0000:17FA       loc_17FA
 0000:1807       loc_1807
 0000:1816       loc_1816
 0000:181A       GemScript
 0000:1829       loc_1829
 0000:1834       loc_1834
 0000:1843       loc_1843
 0000:184F       loc_184F
 0000:1854       PitFall
 0000:185E       loc_185E
 0000:1864       loc_1864
 0000:1873       Teleport
 0000:1880       Loc2BScript0
 0000:188A       loc_188A
 0000:1890       loc_1890
 0000:1894       FallToHopelessWell
 0000:189E       loc_189E
 0000:18A4       loc_18A4
 0000:18A8       DeathOnCandle
 0000:18B2       loc_18B2
 0000:18BA       locret_18BA
 0000:18BB       Loc23Script0
 0000:18C5       loc_18C5
 0000:18CD       locret_18CD
 0000:18CE       VertArrows0
 0000:18D3       VertArrows1
 0000:18D8       VertArrows2
 0000:18DD       VertArrows3
 0000:18E0       loc_18E0
 0000:18EA       loc_18EA
 0000:18F4       loc_18F4
 0000:18FA       loc_18FA
 0000:1913       loc_1913
 0000:191A       loc_191A
 0000:191E       loc_191E
 0000:1924       loc_1924
 0000:192E       loc_192E
 0000:1934       loc_1934
 0000:195C       Loc0DScript1
 0000:1964       loc_1964
 0000:196D       loc_196D
 0000:1980       loc_1980
 0000:198A       loc_198A
 0000:19A2       Loc0EScript0
 0000:19AA       GasFound
 0000:19B2       loc_19B2
 0000:19BA       loc_19BA
 0000:19C9       Loc25Script1
 0000:19D1       loc_19D1
 0000:19D9       loc_19D9
 0000:19E1       loc_19E1
 0000:19F0       sub_19F0
 0000:19FA       loc_19FA
 0000:1A00       Loc0AScrpit1
 0000:1A17       sub_1A17
 0000:1A20       sub_1A20
 0000:1A28       Loc23Script1
 0000:1A2E       loc_1A2E
 0000:1A4A       loc_1A4A
 0000:1A5B       sub_1A5B
 0000:1A63       loc_1A63
 0000:1A6E       locret_1A6E
 0000:1A6F       sub_1A6F
 0000:1A77       loc_1A77
 0000:1A82       locret_1A82
 0000:1A83       InFirstTemple
 0000:1A9D       loc_1A9D
 0000:1AB5       loc_1AB5
 0000:1AEB       loc_1AEB
 0000:1AF8       loc_1AF8
 0000:1B00       loc_1B00
 0000:1B10       Temple1Passed
 0000:1B22       loc_1B22
 0000:1B41       Loc3CScript0
 0000:1B4F       loc_1B4F
 0000:1B5F       loc_1B5F
 0000:1B7A       Check_2S_Flag
 0000:1B83       loc_1B83
 0000:1B89       sub_1B89
 0000:1B8F       loc_1B8F
 0000:1BA1       sub_1BA1
 0000:1BB9       sub_1BB9
 0000:1BCE       sub_1BCE
 0000:1BE3       ClearPrimaryBuffer
 0000:1BF7       LoadLocationData
 0000:1BFF       loc_1BFF
 0000:1C1C       loc_1C1C
 0000:1C3A       NotAPlayer
 0000:1C42       _NextChar
 0000:1C4C       _AllCharsProcessed
 0000:1C51       RunLocationScripts
 0000:1C5C       loc_1C5C
 0000:1C5F       loc_1C5F
 0000:1C6D       CallScript
 0000:1C71       PutTileAt
 0000:1C7D       loc_1C7D
 0000:1C89       loc_1C89
 0000:1C91       loc_1C91
 0000:1C98       loc_1C98
 0000:1CA0       locret_1CA0
 0000:1CA1       Switch31DataSet
 0000:1CAB       loc_1CAB
 0000:1CB8       Switch32DataSet
 0000:1CC2       loc_1CC2
 0000:1CCF       loc_1CCF
 0000:1CE7       Location_31h
 0000:1CF1       Location_2Dh
 0000:1CF8       loc_1CF8
 0000:1D01       loc_1D01
 0000:1D03       loc_1D03
 0000:1D23       Location_32h
 0000:1D2D       Location_2Fh
 0000:1D34       loc_1D34
 0000:1D3D       loc_1D3D
 0000:1D3F       loc_1D3F
 0000:1D61       sub_1D61
 0000:1D6A       loc_1D6A
 0000:1D73       loc_1D73
 0000:1D7A       loc_1D7A
 0000:1D8F       loc_1D8F
 0000:1D9C       loc_1D9C
 0000:1DA9       loc_1DA9
 0000:1DAF       loc_1DAF
 0000:1DBE       loc_1DBE
 0000:1DD1       loc_1DD1
 0000:1DD4       UpdateCharPos
 0000:1DE1       LoadPosition_Preserve_SI
 0000:1DEA       LoadPlayerPosition
 0000:1DF5       sub_1DF5
 0000:1DFE       loc_1DFE
 0000:1E02       sub_1E02
 0000:1E0B       loc_1E0B
 0000:1E0F       Inc_SI_14
 0000:1E18       loc_1E18
 0000:1E1C       sub_1E1C
 0000:1E25       loc_1E25
 0000:1E29       ShiftHorizontally
 0000:1E41       sub_1E41
 0000:1E4D       sub_1E4D
 0000:1E5D       loc_1E5D
 0000:1E5F       loc_1E5F
 0000:1E64       DoCharMotion
 0000:1E81       CL_to_CX
 0000:1E85       CallCustomScript
 0000:1E91       DoEnemyAnimation
 0000:1E9E       RightDir
 0000:1EA5       EyeScript
 0000:1EB4       loc_1EB4
 0000:1EBA       loc_1EBA
 0000:1EBF       loc_1EBF
 0000:1EC7       loc_1EC7
 0000:1ECF       loc_1ECF
 0000:1ED9       sub_1ED9
 0000:1EEE       GetTileAtRandomPlace
 0000:1EFA       loc_1EFA
 0000:1F08       loc_1F08
 0000:1F12       sub_1F12
 0000:1F18       Load_CDS_field7
 0000:1F26       GetMotionPhase
 0000:1F3D       CheckIfKicked
 0000:1F40       loc_1F40
 0000:1F4E       loc_1F4E
 0000:1F5C       loc_1F5C
 0000:1F67       Switch1D_1_Script
 0000:1F6F       Switch1D_2_Script
 0000:1F77       Switch37Script
 0000:1F7D       Switch3AScript
 0000:1F81       loc_1F81
 0000:1F83       loc_1F83
 0000:1FA6       KillIfKicked
 0000:1FAC       loc_1FAC
 0000:1FB4       TurnToPlayerH
 0000:1FC0       loc_1FC0
 0000:1FC8       TurnToPlayerV
 0000:1FD4       loc_1FD4
 0000:1FDA       sub_1FDA
 0000:1FE3       loc_1FE3
 0000:1FEC       loc_1FEC
 0000:1FF1       sub_1FF1
 0000:1FF7       loc_1FF7
 0000:1FFE       loc_1FFE
 0000:2000       Loc0DScript0
 0000:2006       loc_2006
 0000:200E       TripleAH
 0000:2017       MonkeyScript
 0000:201A       loc_201A
 0000:201D       Loc08Script0
 0000:2020       loc_2020
 0000:202A       loc_202A
 0000:2030       loc_2030
 0000:2037       loc_2037
 0000:204A       loc_204A
 0000:204F       BatonerScript
 0000:2058       loc_2058
 0000:2062       loc_2062
 0000:2068       loc_2068
 0000:206F       loc_206F
 0000:2079       SpearmanScript
 0000:2085       loc_2085
 0000:2087       IdolScript
 0000:208C       ArcherScript
 0000:2095       loc_2095
 0000:2097       MaidScript
 0000:20A0       loc_20A0
 0000:20AA       loc_20AA
 0000:20B0       loc_20B0
 0000:20B9       loc_20B9
 0000:20C2       loc_20C2
 0000:20C4       Archer2Script
 0000:20CA       loc_20CA
 0000:20CD       loc_20CD
 0000:20F0       LaunchProjectile
 0000:2127       loc_2127
 0000:2140       sub_2140
 0000:214A       loc_214A
 0000:2150       loc_2150
 0000:2168       loc_2168
 0000:2177       loc_2177
 0000:217F       loc_217F
 0000:2183       sub_2183
 0000:218E       loc_218E
 0000:2194       loc_2194
 0000:21A3       sub_21A3
 0000:21AE       loc_21AE
 0000:21B0       sub_21B0
 0000:21B7       locret_21B7
 0000:21B8       sub_21B8
 0000:21C3       loc_21C3
 0000:21C9       loc_21C9
 0000:21DC       locret_21DC
 0000:21DD       sub_21DD
 0000:21E4       loc_21E4
 0000:21EB       SimpleScript
 0000:21F7       CrocoScript
 0000:2200       _AnimateEnemy
 0000:2217       ResetPositions
 0000:222F       loc_222F
 0000:2235       loc_2235
 0000:223B       FoodScript
 0000:2241       Eat
 0000:2250       WaterScript
 0000:2256       Drink
 0000:2265       OnFindGem
 0000:226E       GetLive
 0000:227F       _DisablePickedItem
 0000:2295       sub_2295
 0000:22A3       loc_22A3
 0000:22B6       loc_22B6
 0000:22B9       loc_22B9
 0000:22C3       BatScript
 0000:22CF       BatIsAlive
 0000:22E9       loc_22E9
 0000:22F2       loc_22F2
 0000:2309       Loc38Script0
 0000:2312       loc_2312
 0000:231A       loc_231A
 0000:2326       loc_2326
 0000:233B       loc_233B
 0000:2341       loc_2341
 0000:234D       loc_234D
 0000:2353       loc_2353
 0000:2359       loc_2359
 0000:235C       RiflemanScript
 0000:236E       loc_236E
 0000:2378       sub_2378
 0000:2383       loc_2383
 0000:238E       loc_238E
 0000:2394       loc_2394
 0000:23A4       loc_23A4
 0000:23B1       loc_23B1
 0000:23CA       ToDecimal
 0000:23D1       loc_23D1
 0000:23E0       loc_23E0
 0000:23F0       loc_23F0
 0000:23FF       loc_23FF
 0000:241E       _DrawScore
 0000:2433       loc_2433
 0000:2449       loc_2449
 0000:244C       UpdateHats
 0000:245F       EraseHat
 0000:247A       IncreaseLives
 0000:2484       loc_2484
 0000:2494       SetForceToZero
 0000:249D       InitFood
 0000:24A6       InitWater
 0000:24AF       PrepareFooter
 0000:24BD       loc_24BD
 0000:24C9       RewindDemoScript
 0000:24D9       loc_24D9
 0000:24F2       loc_24F2
 0000:24FB       aAquiHayQuePokear
 0000:250E       HandleDemoStep
 0000:252A       loc_252A
 0000:254C       Exit
 0000:254D       loc_254D
 0000:257A       SaveGameProcess
 0000:259A       NewDemoStep
 0000:25B5       SaveToDisc
 0000:25D6       DiskWriteLoop
 0000:25ED       _StoreDemoStep
 0000:260F       IncreaseDemoCounter
 0000:261F       loc_261F
 0000:2632       DemoTimer
 0000:2633       DemoFlag
 0000:2634       DemoCounter
 0000:2635       DemoAction
 0000:2636       DemoWeapon
 0000:2637       DemoPtr
 0000:2639       DemoScript
 0000:323B       PrepareFooter_
 0000:323F       DrawForce
 0000:3253       DrawFood
 0000:3261       DrawWater
 0000:326D       DrawSingleGauge
 0000:3285       sub_3285
 0000:328D       loc_328D
 0000:329A       loc_329A
 0000:32A2       loc_32A2
 0000:32A5       Loc1DScript0
 0000:32B5       loc_32B5
 0000:32CD       loc_32CD
 0000:32F0       loc_32F0
 0000:330C       loc_330C
 0000:3315       loc_3315
 0000:3324       Continue
 0000:3339       loc_3339
 0000:3343       loc_3343
 0000:3352       loc_3352
 0000:335B       _LoadWeaponRect
 0000:336B       DrawWpnSelection
 0000:338E       loc_338E
 0000:33A6       SetVideoMode
 0000:33AF       SetRGYPalette_0
 0000:33BD       SetCWBPalette
 0000:33CB       HandleKeyboard
 0000:33E0       loc_33E0
 0000:33F0       loc_33F0
 0000:3400       loc_3400
 0000:3410       loc_3410
 0000:3424       loc_3424
 0000:3430       loc_3430
 0000:343C       loc_343C
 0000:3444       loc_3444
 0000:3451       loc_3451
 0000:345E       loc_345E
 0000:346B       loc_346B
 0000:3477       locret_3477
 0000:3482       loc_3482
 0000:348F       CheckForEnterKey
 0000:3495       IfSpacePressed
 0000:349B       Draw8x8World
 0000:34AD       Draw8x8Footer
 0000:34BF       DrawTile
 0000:34D9       loc_34D9
 0000:34ED       DrawFloatingLog
 0000:3505       DecodeLocationBackground
 0000:3537       BlockLoop
 0000:3556       VerticalLoop
 0000:3558       HorizontalLoop
 0000:3560       SkipTile
 0000:357E       DrawWorldDifferences
 0000:3587       loc_3587
 0000:3595       SameTiles
 0000:35AE       AdjustPalette
 0000:35C3       CyanMagentaWhite
 0000:35CE       locret_35CE
 0000:35CF       RedGreenYellow
 0000:35DA       locret_35DA
 0000:35DB       CurrentPalette
 0000:35DC       PreparePlaceholders
 0000:35DF       loc_35DF
 0000:35E7       loc_35E7
 0000:35F2       GetTileAt2_PrimBuf
 0000:3601       DrawSquareBrackets
 0000:3625       loc_3625
 0000:3627       loc_3627
 0000:363E       loc_363E
 0000:3641       DrawCharacters
 0000:3645       loc_3645
 0000:365E       loc_365E
 0000:3663       _TableIsOver
 0000:3676       loc_3676
 0000:367F       loc_367F
 0000:3686       GetNextCharacter
 0000:3691       loc_3691
 0000:3696       CalcDrawingVars
 0000:36A0       loc_36A0
 0000:36C2       loc_36C2
 0000:36DE       loc_36DE
 0000:36E8       loc_36E8
 0000:36ED       loc_36ED
 0000:36FA       loc_36FA
 0000:3704       loc_3704
 0000:3713       loc_3713
 0000:372C       loc_372C
 0000:3736       loc_3736
 0000:373B       loc_373B
 0000:3748       loc_3748
 0000:3752       loc_3752
 0000:3761       loc_3761
 0000:3777       loc_3777
 0000:3796       loc_3796
 0000:37A6       loc_37A6
 0000:37A9       loc_37A9
 0000:37B5       loc_37B5
 0000:37B8       loc_37B8
 0000:37D5       loc_37D5
 0000:37D8       loc_37D8
 0000:37EC       loc_37EC
 0000:37F0       loc_37F0
 0000:37F9       UpdateFrameData
 0000:3822       sub_3822
 0000:382C       locret_382C
 0000:382D       sub_382D
 0000:383A       _DrawChr1
 0000:3864       loc_3864
 0000:386B       loc_386B
 0000:387B       loc_387B
 0000:3887       loc_3887
 0000:388E       _SetNext
 0000:389B       _GetNext
 0000:38A8       GetFirst
 0000:38B1       _FindIntersections
 0000:38C7       loc_38C7
 0000:3933       locret_3933
 0000:3934       GetLower
 0000:393A       locret_393A
 0000:393B       GetHigher
 0000:3942       GetLower2
 0000:394C       loc_394C
 0000:394E       DrawCharacter
 0000:3974       loc_3974
 0000:3992       loc_3992
 0000:39A2       loc_39A2
 0000:39C0       loc_39C0
 0000:3A20       loc_3A20
 0000:3A23       loc_3A23
 0000:3A30       loc_3A30
 0000:3A59       loc_3A59
 0000:3A67       loc_3A67
 0000:3A72       loc_3A72
 0000:3A77       loc_3A77
 0000:3A7D       loc_3A7D
 0000:3AA9       loc_3AA9
 0000:3AC9       CopySpriteBackground
 0000:3ADF       loc_3ADF
 0000:3AE6       $DrawFrameLine
 0000:3B39       loc_3B39
 0000:3B4F       BitBlt
 0000:3B5B       loc_3B5B
 0000:3B61       loc_3B61
 0000:3B67       loc_3B67
 0000:3B6D       loc_3B6D
 0000:3B75       loc_3B75
 0000:3B8C       __RealToAlt
 0000:3BA0       RemoveAndGetNext
 0000:3BB4       locret_3BB4
 0000:3BB5       RemoveEnemy
 0000:3BBE       _FindEnemy
 0000:3BCB       _EnemyFound
 0000:3BE6       loc_3BE6
 0000:3BEC       ItsPlayer
 0000:3BF3       AddNewChar
 0000:3BFA       loc_3BFA
 0000:3C06       loc_3C06
 0000:3C1D       ExpandCharsTable
 0000:3C3A       InsertRecord
 0000:3C44       loc_3C44
 0000:3C4B       sub_3C4B
 0000:3C5F       loc_3C5F
 0000:3C63       WipeNonActiveChars
 0000:3C6B       loc_3C6B
 0000:3C78       loc_3C78
 0000:3CBA       loc_3CBA
 0000:3CCC       loc_3CCC
 0000:3CD3       loc_3CD3
 0000:3CDE       ConfigureHardware
 0000:3D25       INT09_IP
 0000:3D27       INT09_CS
 0000:3D29       INT1C_IP
 0000:3D2B       INT1C_CS
 0000:3D2D       INT1C_Vector
 0000:3D52       loc_3D52
 0000:3D65       loc_3D65
 0000:3D6F       INT09h_Vector
 0000:3D8E       loc_3D8E
 0000:3D9A       loc_3D9A
 0000:3D9D       loc_3D9D
 0000:3DBD       loc_3DBD
 0000:3DEC       loc_3DEC
 0000:3DFF       loc_3DFF
 0000:3E05       Snd_TurnOffEx
 0000:3E0D       StartMusic
 0000:3E17       PlaySound
 0000:3E1F       loc_3E1F
 0000:3E3C       Snd_NoMod
 0000:3E3D       Snd_Handler
 0000:3E45       loc_3E45
 0000:3E49       loc_3E49
 0000:3E65       loc_3E65
 0000:3E7A       loc_3E7A
 0000:3E8E       locret_3E8E
 0000:3E8F       loc_3E8F
 0000:3EA2       loc_3EA2
 0000:3EB6       loc_3EB6
 0000:3EC4       Snd_Procs
 0000:3ED2       Snd_STOP
 0000:3EDE       Snd_RET
 0000:3EFE       Snd_JSR
 0000:3F1C       Snd_MODULATE
 0000:3F42       Snd_JUMP
 0000:3F55       Snd_PLAY
 0000:3F84       BeginPlayingTone
 0000:3F99       Snd_PAUSE
 0000:3FC0       Backgrounds
 0000:3FC1       Packed0
 0000:400E       Packed1
 0000:400F       stru_400F
 0000:58E6       Bkg_3D
 0000:59AC       Tile8x8World
 0000:69AC       Tile8x8Footer
 0000:702C       Blocks
 0000:702D       Block0
 0000:703F       Block1
 0000:7059       Block02
 0000:706B       Block03
 0000:708D       Block04
 0000:70C0       Block05
 0000:7A45       SpriteIndex
 0000:7AB5       PlayerAnimation
 0000:7AFB       BoomerangAnimation
 0000:7B03       KnifeAnimation
 0000:7B07       BombAnimation
 0000:7B09       RodAnimation
 0000:7B25       ScoreAnimation
 0000:7B2B       ExplodeAnimation
 0000:7B33       BirdAnimation
 0000:7B43       BubbleAnimation
 0000:7B4B       PlantAnimation
 0000:7B57       SwitchAnimation
 0000:7B5F       ScaryEyesAnimation
 0000:7B6F       MonkeyAnimation
 0000:7B77       MinerAnimation
 0000:7B7F       DartsmanAnimation
 0000:7B87       SpearmanAnimation
 0000:7B8F       ArcherAnimation
 0000:7B97       StinkyIdolAnimation
 0000:7B9F       CoconutAnimation
 0000:7BA1       PickAnimation
 0000:7BB1       DartAnimation
 0000:7BB5       SpearAnimation
 0000:7BB9       ArrowAnimation
 0000:7BBD       StinkyGasAnimation
 0000:7BC5       WagonAnimation
 0000:7BC9       MineGasAnimation
 0000:7BD1       ScorpionAnimation
 0000:7BD9       GeckonAnimation
 0000:7BE1       FoodPictures
 0000:7BE5       WaterPictures
 0000:7BE9       GoldenPieces
 0000:7BF1       TheBatAnimation
 0000:7BF9       Fish1Animation
 0000:7C01       Fish2Animation
 0000:7C09       DrummerAnimation
 0000:7C0D       WhirlwindAnimation
 0000:7C11       MerimaidAnimation
 0000:7C19       BatonThrowerAnimation
 0000:7C21       Heart
 0000:7C23       BatonAnimation
 0000:7C33       FallingArrow
 0000:7C37       DancingStatue
 0000:7C3B       DrLivingstonAnimation
 0000:7C43       SnakeAnimation
 0000:7C4B       FlyingDevilAnimation
 0000:7C53       FireballAnimation
 0000:7C57       SpiderAnimation
 0000:7C5B       RiflemanAnimation
 0000:7C6B       BulletAnimation
 0000:7C73       CrocodileAnimation
 0000:7C7B       GoldenPiece
 0000:7C7D       OperasoftLogo
 0000:7C7F       SupongoWord
 0000:7C81       PlayerPhrases
 0000:7C85       DrLivingstonPhrases
 0000:7C89       BkgList
 0000:7D07       Key1
 0000:7D08       Key2
 0000:7D09       Key3
 0000:7D0A       Key4
 0000:7D0B       KeyO
 0000:7D0C       KeyP
 0000:7D0D       KeyQ
 0000:7D0E       KeyA
 0000:7D0F       KeySpace
 0000:7D10       KeyScrollLock
 0000:7D11       KeyEnter
 0000:7D12       KeyE
 0000:7D13       KeyR
 0000:7D14       KeyS
 0000:7D15       KeyD
 0000:7D16       KeyAlt
 0000:7D17       KeyCtrl
 0000:7D18       KeyDel
 0000:7D19       KeyF1
 0000:7D1A       KeyLeft
 0000:7D1B       KeyRight
 0000:7D1C       KeyUp
 0000:7D1D       KeyDown
 0000:7D1E       KeyAct2
 0000:7D1F       KeyAct3
 0000:7D21       Music_Phrase0
 0000:7E15       Music_Phrase1
 0000:7EA6       _Music
 0000:7EB2       _Sound7
 0000:7EBC       _Sound3
 0000:7EC6       _Sound2
 0000:7ED0       _Sound1
 0000:7F2D       _Sound0
 0000:7F2E       Snd_Extermination
 0000:7F3B       _Sound5
 0000:7F45       Snd_PickUp
 0000:7F59       Snd_Phrase0
 0000:7F73       Snd_NoModulation
 0000:7F74       Snd_Mod0
 0000:7F77       Snd_Mod1
 0000:7F79       Snd_Mod2
 0000:7F8B       Snd_Flags
 0000:7F8C       Snd_Command_Ptr
 0000:7F8E       Snd_Duration
 0000:7F90       Snd_Backstack_Ptr
 0000:7F92       Snd_Mod_Ptr_Reload
 0000:7F94       Snd_Mod_Period_Reload
 0000:7F95       Snd_Mod_Ptr
 0000:7F97       Snd_Mod_Period
 0000:7F98       Tone
 0000:7F9A       Snd_Stack
 0000:7FB2       Timer0
 0000:7FB3       Timer2
 0000:7FB5       Snd_IsPlaying
 0000:7FB6       byte_7FB6
 0000:7FBA       AnimRects
 0000:8024       PickableItems
 0000:806D       StandbyScript
 0000:8093       unk_8093
 0000:809A       off_809A
 0000:80A4       byte_80A4
 0000:80AB       byte_80AB
 0000:80B2       byte_80B2
 0000:80B9       byte_80B9
 0000:80C3       _RightMotion
 0000:80C8       RightUpJump
 0000:80CD       DuckRight
 0000:80D2       ThrowRight
 0000:80D7       FallingDownRight
 0000:80DC       DeathRight
 0000:80E1       CoconutedRight
 0000:80E6       EatenRight
 0000:80EB       SwampedRight
 0000:80F0       _LeftMotion
 0000:80F5       LeftUpJump
 0000:80FA       DuckLeft
 0000:80FF       ThrowLeft
 0000:8104       FallingDownLeft
 0000:8109       DeathLeft
 0000:810E       CoconutedLeft
 0000:8113       EatenLeft
 0000:8118       SwampedLeft
 0000:811D       _Offsets
 0000:812A       byte_812A
 0000:812F       byte_812F
 0000:8134       ScriptTable
 0000:81A4       Locations
 0000:8220       Location0
 0000:8247       Location1
 0000:826C       Location2
 0000:827F       Location3
 0000:829B       Location4
 0000:82BE       Location5
 0000:82CC       Water1
 0000:82D5       Food1
 0000:82EC       Location6
 0000:830F       Location7
 0000:832F       Food2
 0000:8339       Location8
 0000:8350       Gem1
 0000:835A       Location9
 0000:837D       Location0A
 0000:839D       Water2
 0000:83A7       Location0B
 0000:83D1       Location0C
 0000:83E8       Water3
 0000:83F6       Location0D
 0000:840D       Food3
 0000:841D       Location0E
 0000:843B       Location0F
 0000:8462       Location10
 0000:8479       Gem2
 0000:8487       Location11
 0000:84AC       Location12
 0000:84CF       Location13
 0000:84D4       stru_84D4
 0000:84F0       Location14
 0000:8525       Location15
 0000:854E       Food4
 0000:855C       Location16
 0000:8585       Water4
 0000:858F       Location17
 0000:85B8       Gem3
 0000:85C4       Location18
 0000:85DC       Location19
 0000:85FD       Location1A
 0000:861D       Water6
 0000:8629       Location1B
 0000:8641       Location1C
 0000:865B       Location1D
 0000:8680       Location1E
 0000:869A       Location1F
 0000:86B4       Location20
 0000:86CE       Location21
 0000:86EF       Location22
 0000:870F       Food6
 0000:871B       Location23
 0000:8730       Location24
 0000:8753       Location25
 0000:877A       Location26
 0000:879A       Gem4
 0000:87AA       Location27
 0000:87C1       Food5
 0000:87CD       Location28
 0000:87E7       Location29
 0000:87FE       Water5
 0000:880E       Location2A
 0000:882A       Location2B
 0000:8853       Water7
 0000:8861       Location2C
 0000:8882       Location2D
 0000:88A5       Location2E
 0000:88CF       Location2F
 0000:88E9       Location30
 0000:8901       Location31
 0000:8918       Food7
 0000:8926       Location32
 0000:8942       Location33
 0000:8948       Location34
 0000:8950       Location35
 0000:8968       Location36
 0000:8980       Location37
 0000:89A1       Location38
 0000:89BB       Location39
 0000:89DB       Gem5
 0000:89E5       Location3A
 0000:8A06       Location3B
 0000:8A29       Location3C
 0000:8A43       Location3D
 0000:8A76       EyesDataSet
 0000:8A7F       MonkeyDataSet
 0000:8A8B       MinerDataSet
 0000:8A97       SpearmanDataSet
 0000:8AA3       DartsmanDataSet
 0000:8AAF       IdolDataSet
 0000:8ABB       BatonerDataSet
 0000:8AC7       ArcherDataSet
 0000:8AD3       ArcherDataSet2
 0000:8ADF       MaidDataSet
 0000:8AEB       BatDataSet
 0000:8B2A       MineGasDataSet
 0000:8B45       ReptileDataSet
 0000:8B55       ReptileDataSet5
 0000:8B65       ReptileDataSet2
 0000:8B75       ReptileDataSet3
 0000:8B85       ReptileDataSet4
 0000:8B95       CrocoDataSet
 0000:8BA5       SpiderDataSet
 0000:8BB2       FishDataSet
 0000:8BDA       FishDataSet2
 0000:8C02       FishDataSet3
 0000:8C2A       FishInCaveDataSet
 0000:8C52       CrocoDataSet2
 0000:8C62       CrocoDataSet3
 0000:8C72       FlyingDevilDataSet
 0000:8C94       FoodDataSet
 0000:8CA1       WaterDataSet
 0000:8CAE       GemDataSet
 0000:8CBB       RiflemanDataSet
 0000:8CCB       RiflemanDataSet2
 0000:8CD4       stru_8CD4
 0000:8CFE       SpareLocationItem
 0000:8D07       Footer
 0000:8DDC       FooterEnd
 0000:8DDD       Player_Sprite20_Empty_
 0000:8E69       Player_Sprite0
 0000:8EF5       Player_Sprite1
 0000:8F81       Player_Sprite2
 0000:900D       Player_Sprite3
 0000:9099       Player_Sprite5
 0000:9125       Player_Sprite4
 0000:91B1       Player_Sprite6
 0000:923D       Player_Sprite7
 0000:92C9       Player_Sprite8
 0000:9355       Player_Sprite9
 0000:93E1       Player_Sprite0A
 0000:946D       Player_Sprite0B
 0000:94F9       Player_Sprite0C
 0000:9585       Player_Sprite0D
 0000:9611       Player_Sprite1E
 0000:969D       Player_Sprite1F
 0000:9729       Sprite11
 0000:9739       Sprite12
 0000:9749       Sprite13
 0000:9759       Sprite14
 0000:9769       Sprite15
 0000:9777       Sprite16
 0000:9787       Sprite17
 0000:9795       Sprite18
 0000:97F7       Sprite19
 0000:9899       Sprite1A
 0000:9963       Sprite1B
 0000:9A25       Sprite1C
 0000:9ACB       Sprite1D
 0000:9AFD       Sprite1E
 0000:9B23       byte_9B23
 0000:9B49       byte_9B49
 0000:9B6F       byte_9B6F
 0000:9BEF       byte_9BEF
 0000:9C6F       byte_9C6F
 0000:9CEF       byte_9CEF
 0000:9D51       byte_9D51
 0000:9DB3       byte_9DB3
 0000:9E15       byte_9E15
 0000:9E41       byte_9E41
 0000:9E6D       byte_9E6D
 0000:9E99       byte_9E99
 0000:9F25       byte_9F25
 0000:9FB1       byte_9FB1
 0000:A03D       byte_A03D
 0000:A077       byte_A077
 0000:A0B1       byte_A0B1
 0000:A0D1       byte_A0D1
 0000:A0F1       byte_A0F1
 0000:A111       byte_A111
 0000:A131       byte_A131
 0000:A1AB       byte_A1AB
 0000:A225       byte_A225
 0000:A2AB       byte_A2AB
 0000:A331       byte_A331
 0000:A3B1       byte_A3B1
 0000:A431       byte_A431
 0000:A4B7       byte_A4B7
 0000:A53D       byte_A53D
 0000:A5B7       byte_A5B7
 0000:A631       byte_A631
 0000:A6B1       byte_A6B1
 0000:A731       byte_A731
 0000:A741       byte_A741
 0000:A753       byte_A753
 0000:A765       byte_A765
 0000:A777       byte_A777
 0000:A789       byte_A789
 0000:A795       byte_A795
 0000:A7A9       byte_A7A9
 0000:A7C3       byte_A7C3
 0000:A7F5       byte_A7F5
 0000:A827       byte_A827
 0000:A859       byte_A859
 0000:A8AF       byte_A8AF
 0000:A905       byte_A905
 0000:A95B       byte_A95B
 0000:A9B1       byte_A9B1
 0000:AA07       byte_AA07
 0000:AA5D       byte_AA5D
 0000:AAB3       byte_AAB3
 0000:AADF       byte_AADF
 0000:AB0B       byte_AB0B
 0000:AB45       byte_AB45
 0000:AB7B       byte_AB7B
 0000:ABBD       byte_ABBD
 0000:ABF7       byte_ABF7
 0000:AC15       byte_AC15
 0000:AC33       byte_AC33
 0000:AC89       byte_AC89
 0000:ACDF       byte_ACDF
 0000:AD35       byte_AD35
 0000:AD97       byte_AD97
 0000:ADF9       byte_ADF9
 0000:AE43       byte_AE43
 0000:AE8D       byte_AE8D
 0000:AF13       byte_AF13
 0000:AF99       byte_AF99
 0000:B019       byte_B019
 0000:B099       byte_B099
 0000:B0F3       byte_B0F3
 0000:B14D       byte_B14D
 0000:B1D3       byte_B1D3
 0000:B259       byte_B259
 0000:B26D       byte_B26D
 0000:B27F       byte_B27F
 0000:B291       byte_B291
 0000:B2A3       byte_B2A3
 0000:B2B5       byte_B2B5
 0000:B2D7       byte_B2D7
 0000:B34B       byte_B34B
 0000:B3BF       byte_B3BF
 0000:B403       byte_B403
 0000:B447       FlyingDevil_Sprite0
 0000:B4C7       FlyingDevil_Sprite1
 0000:B547       byte_B547
 0000:B56D       byte_B56D
 0000:B593       byte_B593
 0000:B5D5       byte_B5D5
 0000:B617       byte_B617
 0000:B6A3       byte_B6A3
 0000:B72F       byte_B72F
 0000:B7BB       byte_B7BB
 0000:B800       byte_B800
 0000:B841       byte_B841
 0000:B8C7       byte_B8C7
 0000:B8CF       byte_B8CF
 0000:B8D7       byte_B8D7
 0000:B8DF       byte_B8DF
 0000:BB15       byte_BB15
 0000:BBEF       Continuara
 0000:BCD5       To_be_cont
 0000:BDBB       PhraseNo
 0000:BDF9       PhraseOK
 0000:BE37       Liv_I_Pres
 0000:BF1D       LivingstoneSupongo
 0000:C003       SupongoStandbyLogo
 0000:C005       byte_C005
 0000:C0A5       I_presume_stdby_logo
 0000:C15B       byte_C15B
 0000:C1BD       byte_C1BD
 0000:C21F       byte_C21F
 0000:C281       byte_C281
 0000:C293       byte_C293
 0000:C31F       byte_C31F
 0000:C3AB       byte_C3AB
 0000:C437       byte_C437
 0000:C4BD       byte_C4BD
 0000:C543       byte_C543
 0000:C54F       byte_C54F
 0000:C785       byte_C785
 0000:C7DB       byte_C7DB
 0000:C831       Player_Sprite10
 0000:C8BD       Player_Sprite11
 0000:C949       Player_Sprite12
 0000:C9D5       Player_Sprite13
 0000:CA61       Player_Sprite14
 0000:CAED       Player_Sprite15
 0000:CB79       Player_Sprite16
 0000:CC05       Player_Sprite17
 0000:CC91       Player_Sprite18
 0000:CD1D       Player_Sprite19
 0000:CDA9       Player_Sprite1C
 0000:CE35       Player_Sprite1D
 0000:CEC1       Player_Sprite1A
 0000:CF4D       Player_Sprite1B
 0000:CFD9       byte_CFD9
 0000:CFF3       byte_CFF3
 0000:D007       byte_D007
 0000:D087       byte_D087
 0000:D107       byte_D107
 0000:D18D       byte_D18D
 0000:D213       byte_D213
 0000:D28D       byte_D28D
 0000:D307       byte_D307
 0000:D381       byte_D381
 0000:D3FB       byte_D3FB
 0000:D47B       byte_D47B
 0000:D4FB       byte_D4FB
 0000:D581       byte_D581
 0000:D607       byte_D607
 0000:D669       byte_D669
 0000:D70B       byte_D70B
 0000:D7D5       byte_D7D5
 0000:D897       byte_D897
 0000:D93D       byte_D93D
 0000:D987       byte_D987
 0000:D9D1       byte_D9D1
 0000:D9D9       byte_D9D9
 0000:D9DE       byte_D9DE
 0000:DA33       byte_DA33
 0000:DA95       byte_DA95
 0000:DB21       byte_DB21
 0000:DBAD       byte_DBAD
 0000:DC33       byte_DC33
 0000:DCB9       byte_DCB9
 0000:DCE5       byte_DCE5
 0000:DD11       byte_DD11
 0000:DD55       byte_DD55
 0000:DD99       KeysPressed
 0000:DD9B       Timer1
 0000:DD9E       StandbyFlag
 0000:DD9F       GameOverFlag
 0000:DDA1       TwoSecondsFlag
 0000:DDA2       Lives
 0000:DDA8       TileUnderPlayer
 0000:DDAA       CharCounter
 0000:DDAC       FoodLevel
 0000:DDAD       WaterLevel
 0000:DDAE       MovingFloorDelay
 0000:DDAF       byte_DDAF
 0000:DDB0       GemsFound
 0000:DDB1       Weapon
 0000:DDB2       Temp
 0000:DDB3       GameFlags
 0000:DDB4       byte_DDB4
 0000:DDB5       Force
 0000:DDB7       _BoomerangState
 0000:DDB9       SelectedWeapon
 0000:DDBB       _LogRight
 0000:DDBC       _FloatingLogPos
 0000:DDBE       _LogLeft
 0000:DDBF       _IfCandlesAreRemoved
 0000:DDC0       byte_DDC0
 0000:DDC1       FWDecPrescaler
 0000:DDC2       byte_DDC2
 0000:DDC3       GemsFoundEx
 0000:DDC4       StandbyModeCounter
 0000:DDC5       EscapeFromPitFlag
 0000:DDCC       _RandomNumber
 0000:DDD2       word_DDD2
 0000:DDD4       word_DDD4
 0000:DDD6       word_DDD6
 0000:DDD8       SpareCell
 0000:DDDC       TileDest
 0000:DDDE       Score
 0000:DDE2       CharTablePointer
 0000:DDE4       AWidthInTiles
 0000:DDE6       AHeightInTiles
 0000:DDE8       word_DDE8
 0000:DDEA       byte_DDEA
 0000:DDEB       byte_DDEB
 0000:DDEC       LocationScriptList
 0000:DDEE       StandbyActionPointer
 0000:DDF0       StartEndFrames
 0000:DDF2       CurrentLocPtr
 0000:DDF4       _DecimalScore
 0000:DDFA       InitialCoords
 0000:DDFF       _StoredCoords
 0000:DE04       _SomeLocNumber
 0000:DE0D       ExpandedFrameWidth
 0000:DE0F       FrameOrigin
 0000:DE11       FrameWidth
 0000:DE13       NextDrawable
 0000:DE15       Drawable
 0000:DE17       Intersections
 0000:DE2F       CDV_DoubledCol
 0000:DE31       CDVAnimWidth
 0000:DE32       AnimHeight
 0000:DE33       _NoOfIntersections
 0000:DE34       _DoubledCol2
 0000:DE35       _AnimWidth2
 0000:DE36       _QuadrupledRow2
 0000:DE37       _AnimHeight2
 0000:DE38       byte_DE38
 0000:DE39       _DoubledCol3
 0000:DE3A       _QuadrupledRow3
 0000:DE3B       _FrameWidth
 0000:DE3F       Column
 0000:DE40       Row
 0000:DE41       ColCount
 0000:DE42       RowCount
 0000:DE45       CDV_CharFlags2
 0000:DE46       PlayerData
 0000:DE6E       BoomerangData
 0000:DE96       KnifeData
 0000:DEBE       BombData
 0000:DEE6       PoleData
 0000:DF0E       FirstEnemyData
 0000:DF36       Char6Data
 0000:DF5E       Char7Data
 0000:DF86       Char8Data
 0000:DFAE       Char9Data
 0000:DFD6       CharAData
 0000:DFFE       CharBData
 0000:E026       ChrData_End_Marker
 0000:E027       CharCount
 0000:E028       Characters
 0000:E02A       Character1
 0000:E04A       Location
 0000:E04B       WorldRedrawn
 0000:E04C       PrimaryBuffer
 0000:E36C       SecondaryBuffer

Program entry point at 0000:0100
